target datalayout = "e-m:e-p270:32:32-p271:32:32-p272:64:64-i64:64-i128:128-f80:128-n8:16:32:64-S128"
target triple = "x86_64-pc-linux-gnu"

%struct._zval_struct = type { %union._zend_value, %union.anon.3, %union.anon.6 }
%union._zend_value = type { i64 }
%union.anon.3 = type { i32 }
%union.anon.6 = type { i32 }
%struct._php_stream = type { ptr, ptr, %struct._php_stream_filter_chain, %struct._php_stream_filter_chain, ptr, ptr, %struct._zval_struct, i16, [16 x i8], i32, ptr, ptr, ptr, ptr, i64, ptr, i64, i64, i64, i64, ptr }
%struct._php_stream_filter_chain = type { ptr, ptr, ptr }
%struct.php_stream_input = type { ptr, i64 }

; Function Attrs: nounwind uwtable
define internal i32 @php_stream_input_seek(ptr noundef %0, i64 noundef %1, i32 noundef %2, ptr noundef %3) #0 {
  %5 = alloca i32, align 4
  %6 = alloca ptr, align 8
  %7 = alloca i64, align 8
  %8 = alloca i32, align 4
  %9 = alloca ptr, align 8
  %10 = alloca ptr, align 8
  %11 = alloca i32, align 4
  store ptr %0, ptr %6, align 8
  store i64 %1, ptr %7, align 8
  store i32 %2, ptr %8, align 4
  store ptr %3, ptr %9, align 8
  %12 = load ptr, ptr %6, align 8
  %13 = getelementptr inbounds %struct._php_stream, ptr %12, i32 0, i32 1
  %14 = load ptr, ptr %13, align 8
  store ptr %14, ptr %10, align 8
  %15 = load ptr, ptr %10, align 8
  %16 = getelementptr inbounds %struct.php_stream_input, ptr %15, i32 0, i32 0
  %17 = load ptr, ptr %16, align 8
  %18 = icmp ne ptr %17, null
  br i1 %18, label %19, label %35

19:                                               ; preds = %4
  %20 = load ptr, ptr %10, align 8
  %21 = getelementptr inbounds %struct.php_stream_input, ptr %20, i32 0, i32 0
  %22 = load ptr, ptr %21, align 8
  %23 = load i64, ptr %7, align 8
  %24 = load i32, ptr %8, align 4
  %25 = call i32 @_php_stream_seek(ptr noundef %22, i64 noundef %23, i32 noundef %24)
  store i32 %25, ptr %11, align 4
  %26 = load ptr, ptr %10, align 8
  %27 = getelementptr inbounds %struct.php_stream_input, ptr %26, i32 0, i32 0
  %28 = load ptr, ptr %27, align 8
  %29 = getelementptr inbounds %struct._php_stream, ptr %28, i32 0, i32 14
  %30 = load i64, ptr %29, align 8
  %31 = load ptr, ptr %10, align 8
  %32 = getelementptr inbounds %struct.php_stream_input, ptr %31, i32 0, i32 1
  store i64 %30, ptr %32, align 8
  %33 = load ptr, ptr %9, align 8
  store i64 %30, ptr %33, align 8
  %34 = load i32, ptr %11, align 4
  store i32 %34, ptr %5, align 4
  br label %36

35:                                               ; preds = %4
  store i32 -1, ptr %5, align 4
  br label %36

36:                                               ; preds = %35, %19
  %37 = load i32, ptr %5, align 4
  ret i32 %37
}