; Function Attrs: nounwind uwtable
define internal i32 @php_stream_input_seek(ptr nocapture noundef readonly %0, i64 noundef %1, i32 noundef %2, ptr nocapture noundef writeonly %3) #0 {
  %5 = getelementptr inbounds i8, ptr %0, i64 8
  %6 = load ptr, ptr %5, align 8
  %7 = load ptr, ptr %6, align 8
  %.not = icmp eq ptr %7, null
  br i1 %.not, label %14, label %8

8:                                                ; preds = %4
  %9 = tail call i32 @_php_stream_seek(ptr noundef nonnull %7, i64 noundef %1, i32 noundef %2) #12
  %10 = load ptr, ptr %6, align 8
  %11 = getelementptr inbounds i8, ptr %10, i64 152
  %12 = load i64, ptr %11, align 8
  %13 = getelementptr inbounds i8, ptr %6, i64 8
  store i64 %12, ptr %13, align 8
  store i64 %12, ptr %3, align 8
  br label %14

14:                                               ; preds = %4, %8
  %.0 = phi i32 [ %9, %8 ], [ -1, %4 ]
  ret i32 %.0
}